target datalayout = "e-m:e-p270:32:32-p271:32:32-p272:64:64-i64:64-i128:128-f80:128-n8:16:32:64-S128"
target triple = "x86_64-pc-linux-gnu"

%struct._zval_struct = type { %union._zend_value, %union.anon.0, %union.anon.3 }
%union._zend_value = type { i64 }
%union.anon.0 = type { i32 }
%union.anon.3 = type { i32 }
%struct._zend_array = type { %struct._zend_refcounted_h, %union.anon.5, i32, %union.anon.7, i32, i32, i32, i32, i64, ptr }
%struct._zend_refcounted_h = type { i32, %union.anon }
%union.anon = type { i32 }
%union.anon.5 = type { i32 }
%union.anon.7 = type { ptr }
%struct.zend_type = type { ptr, i32 }
%struct._zend_object = type { %struct._zend_refcounted_h, i32, ptr, ptr, ptr, [1 x %struct._zval_struct] }
%struct._zend_class_entry = type { i8, ptr, %union.anon.4, i32, i32, i32, i32, ptr, ptr, ptr, %struct._zend_array, %struct._zend_array, %struct._zend_array, ptr, ptr, ptr, ptr, ptr, ptr, ptr, ptr, ptr, ptr, ptr, ptr, ptr, ptr, ptr, ptr, ptr, ptr, ptr, %union.anon.8, ptr, ptr, ptr, ptr, i32, i32, %union.anon.9, ptr, ptr, ptr, ptr, i32, ptr, ptr, %union.anon.10 }
%union.anon.4 = type { ptr }
%union.anon.8 = type { ptr }
%union.anon.9 = type { ptr }
%union.anon.10 = type { %struct.anon.11 }
%struct.anon.11 = type { ptr, i32, i32 }
%struct._zend_property_info = type { i32, i32, ptr, ptr, ptr, ptr, %struct.zend_type }
%struct._Bucket = type { %struct._zval_struct, i64, ptr }
%struct._zend_string = type { %struct._zend_refcounted_h, i64, i64, [1 x i8] }
%struct._zend_reference = type { %struct._zend_refcounted_h, %struct._zval_struct, %union.zend_property_info_source_list }
%union.zend_property_info_source_list = type { ptr }
%struct.anon.1 = type { i8, i8, %union.anon.2 }
%union.anon.2 = type { i16 }

; Function Attrs: nounwind uwtable
define ptr @zend_std_build_object_properties_array(ptr noundef %0) #0 {
  %2 = alloca ptr, align 8
  %3 = alloca ptr, align 8
  %4 = alloca i32, align 4
  %5 = alloca i32, align 4
  %6 = alloca ptr, align 8
  %7 = alloca i32, align 4
  %8 = alloca ptr, align 8
  %9 = alloca ptr, align 8
  %10 = alloca ptr, align 8
  %11 = alloca i8, align 1
  %12 = alloca i32, align 4
  %13 = alloca i32, align 4
  %14 = alloca ptr, align 8
  %15 = alloca ptr, align 8
  %16 = alloca ptr, align 8
  %17 = alloca ptr, align 8
  %18 = alloca i32, align 4
  %19 = alloca ptr, align 8
  %20 = alloca ptr, align 8
  %21 = alloca ptr, align 8
  %22 = alloca ptr, align 8
  %23 = alloca ptr, align 8
  %24 = alloca ptr, align 8
  %25 = alloca ptr, align 8
  %26 = alloca ptr, align 8
  %27 = alloca ptr, align 8
  %28 = alloca ptr, align 8
  %29 = alloca ptr, align 8
  %30 = alloca ptr, align 8
  %31 = alloca ptr, align 8
  %32 = alloca ptr, align 8
  %33 = alloca i32, align 4
  store ptr %0, ptr %28, align 8
  %34 = load ptr, ptr %28, align 8
  %35 = getelementptr inbounds %struct._zend_object, ptr %34, i32 0, i32 2
  %36 = load ptr, ptr %35, align 8
  store ptr %36, ptr %30, align 8
  %37 = load ptr, ptr %28, align 8
  %38 = getelementptr inbounds %struct._zend_object, ptr %37, i32 0, i32 4
  %39 = load ptr, ptr %38, align 8
  %40 = icmp ne ptr %39, null
  %41 = xor i1 %40, true
  call void @llvm.assume(i1 %41)
  %42 = load ptr, ptr %30, align 8
  %43 = getelementptr inbounds %struct._zend_class_entry, ptr %42, i32 0, i32 5
  %44 = load i32, ptr %43, align 8
  %45 = call i1 @llvm.is.constant.i32(i32 %44)
  br i1 %45, label %46, label %60

46:                                               ; preds = %1
  %47 = load ptr, ptr %30, align 8
  %48 = getelementptr inbounds %struct._zend_class_entry, ptr %47, i32 0, i32 5
  %49 = load i32, ptr %48, align 8
  %50 = icmp ule i32 %49, 8
  br i1 %50, label %51, label %53

51:                                               ; preds = %46
  %52 = call ptr @_zend_new_array_0()
  br label %58

53:                                               ; preds = %46
  %54 = load ptr, ptr %30, align 8
  %55 = getelementptr inbounds %struct._zend_class_entry, ptr %54, i32 0, i32 5
  %56 = load i32, ptr %55, align 8
  %57 = call ptr @_zend_new_array(i32 noundef %56)
  br label %58

58:                                               ; preds = %53, %51
  %59 = phi ptr [ %52, %51 ], [ %57, %53 ]
  br label %65

60:                                               ; preds = %1
  %61 = load ptr, ptr %30, align 8
  %62 = getelementptr inbounds %struct._zend_class_entry, ptr %61, i32 0, i32 5
  %63 = load i32, ptr %62, align 8
  %64 = call ptr @_zend_new_array(i32 noundef %63)
  br label %65

65:                                               ; preds = %60, %58
  %66 = phi ptr [ %59, %58 ], [ %64, %60 ]
  store ptr %66, ptr %31, align 8
  %67 = load ptr, ptr %30, align 8
  %68 = getelementptr inbounds %struct._zend_class_entry, ptr %67, i32 0, i32 5
  %69 = load i32, ptr %68, align 8
  %70 = icmp ne i32 %69, 0
  br i1 %70, label %71, label %262

71:                                               ; preds = %65
  %72 = load ptr, ptr %31, align 8
  call void @zend_hash_real_init_mixed(ptr noundef %72)
  store i32 0, ptr %33, align 4
  br label %73

73:                                               ; preds = %258, %71
  %74 = load i32, ptr %33, align 4
  %75 = load ptr, ptr %30, align 8
  %76 = getelementptr inbounds %struct._zend_class_entry, ptr %75, i32 0, i32 5
  %77 = load i32, ptr %76, align 8
  %78 = icmp slt i32 %74, %77
  br i1 %78, label %79, label %261

79:                                               ; preds = %73
  %80 = load ptr, ptr %30, align 8
  %81 = getelementptr inbounds %struct._zend_class_entry, ptr %80, i32 0, i32 15
  %82 = load ptr, ptr %81, align 8
  %83 = load i32, ptr %33, align 4
  %84 = sext i32 %83 to i64
  %85 = getelementptr inbounds ptr, ptr %82, i64 %84
  %86 = load ptr, ptr %85, align 8
  store ptr %86, ptr %29, align 8
  %87 = load ptr, ptr %29, align 8
  %88 = icmp ne ptr %87, null
  br i1 %88, label %90, label %89

89:                                               ; preds = %79
  br label %258

90:                                               ; preds = %79
  %91 = load ptr, ptr %28, align 8
  %92 = load ptr, ptr %29, align 8
  %93 = getelementptr inbounds %struct._zend_property_info, ptr %92, i32 0, i32 0
  %94 = load i32, ptr %93, align 8
  %95 = zext i32 %94 to i64
  %96 = getelementptr inbounds i8, ptr %91, i64 %95
  store ptr %96, ptr %32, align 8
  %97 = load ptr, ptr %32, align 8
  store ptr %97, ptr %26, align 8
  %98 = load ptr, ptr %26, align 8
  %99 = getelementptr inbounds %struct._zval_struct, ptr %98, i32 0, i32 1
  %100 = load i8, ptr %99, align 8
  %101 = zext i8 %100 to i32
  %102 = icmp eq i32 %101, 0
  %103 = xor i1 %102, true
  %104 = xor i1 %103, true
  %105 = zext i1 %104 to i32
  %106 = sext i32 %105 to i64
  %107 = icmp ne i64 %106, 0
  br i1 %107, label %108, label %109

108:                                              ; preds = %90
  br label %258

109:                                              ; preds = %90
  %110 = load ptr, ptr %32, align 8
  store ptr %110, ptr %27, align 8
  %111 = load ptr, ptr %27, align 8
  %112 = getelementptr inbounds %struct._zval_struct, ptr %111, i32 0, i32 1
  %113 = load i8, ptr %112, align 8
  %114 = zext i8 %113 to i32
  %115 = icmp eq i32 %114, 10
  br i1 %115, label %116, label %128

116:                                              ; preds = %109
  %117 = load ptr, ptr %32, align 8
  store ptr %117, ptr %25, align 8
  %118 = load ptr, ptr %25, align 8
  %119 = load ptr, ptr %118, align 8
  store ptr %119, ptr %19, align 8
  %120 = load ptr, ptr %19, align 8
  %121 = load i32, ptr %120, align 4
  %122 = icmp eq i32 %121, 1
  br i1 %122, label %123, label %128

123:                                              ; preds = %116
  %124 = load ptr, ptr %32, align 8
  %125 = getelementptr inbounds %struct._zval_struct, ptr %124, i32 0, i32 0
  %126 = load ptr, ptr %125, align 8
  %127 = getelementptr inbounds %struct._zend_reference, ptr %126, i32 0, i32 1
  store ptr %127, ptr %32, align 8
  br label %128

128:                                              ; preds = %123, %116, %109
  br label %129

129:                                              ; preds = %128
  %130 = load ptr, ptr %32, align 8
  %131 = getelementptr inbounds %struct._zval_struct, ptr %130, i32 0, i32 1
  %132 = getelementptr inbounds %struct.anon.1, ptr %131, i32 0, i32 1
  %133 = load i8, ptr %132, align 1
  %134 = zext i8 %133 to i32
  %135 = icmp ne i32 %134, 0
  br i1 %135, label %136, label %149

136:                                              ; preds = %129
  %137 = load ptr, ptr %32, align 8
  store ptr %137, ptr %24, align 8
  %138 = load ptr, ptr %24, align 8
  %139 = getelementptr inbounds %struct._zval_struct, ptr %138, i32 0, i32 1
  %140 = getelementptr inbounds %struct.anon.1, ptr %139, i32 0, i32 1
  %141 = load i8, ptr %140, align 1
  %142 = zext i8 %141 to i32
  %143 = icmp ne i32 %142, 0
  call void @llvm.assume(i1 %143)
  %144 = load ptr, ptr %24, align 8
  %145 = load ptr, ptr %144, align 8
  store ptr %145, ptr %20, align 8
  %146 = load ptr, ptr %20, align 8
  %147 = load i32, ptr %146, align 4
  %148 = add i32 %147, 1
  store i32 %148, ptr %146, align 4
  br label %149

149:                                              ; preds = %136, %129
  br label %150

150:                                              ; preds = %149
  %151 = load ptr, ptr %31, align 8
  %152 = load ptr, ptr %29, align 8
  %153 = getelementptr inbounds %struct._zend_property_info, ptr %152, i32 0, i32 2
  %154 = load ptr, ptr %153, align 8
  %155 = load ptr, ptr %32, align 8
  store ptr %151, ptr %21, align 8
  store ptr %154, ptr %22, align 8
  store ptr %155, ptr %23, align 8
  %156 = load ptr, ptr %21, align 8
  %157 = load ptr, ptr %22, align 8
  %158 = load ptr, ptr %23, align 8
  store ptr %156, ptr %8, align 8
  store ptr %157, ptr %9, align 8
  store ptr %158, ptr %10, align 8
  store i8 0, ptr %11, align 1
  %159 = load ptr, ptr %8, align 8
  %160 = getelementptr inbounds %struct._zend_array, ptr %159, i32 0, i32 4
  %161 = load i32, ptr %160, align 8
  %162 = add i32 %161, 1
  store i32 %162, ptr %160, align 8
  store i32 %161, ptr %12, align 4
  %163 = load ptr, ptr %8, align 8
  %164 = getelementptr inbounds %struct._zend_array, ptr %163, i32 0, i32 3
  %165 = load ptr, ptr %164, align 8
  %166 = load i32, ptr %12, align 4
  %167 = zext i32 %166 to i64
  %168 = getelementptr inbounds %struct._Bucket, ptr %165, i64 %167
  store ptr %168, ptr %14, align 8
  %169 = load ptr, ptr %14, align 8
  store ptr %169, ptr %15, align 8
  %170 = load ptr, ptr %10, align 8
  store ptr %170, ptr %16, align 8
  %171 = load ptr, ptr %16, align 8
  %172 = load ptr, ptr %171, align 8
  store ptr %172, ptr %17, align 8
  %173 = load ptr, ptr %16, align 8
  %174 = getelementptr inbounds %struct._zval_struct, ptr %173, i32 0, i32 1
  %175 = load i32, ptr %174, align 8
  store i32 %175, ptr %18, align 4
  %176 = load ptr, ptr %17, align 8
  %177 = load ptr, ptr %15, align 8
  store ptr %176, ptr %177, align 8
  %178 = load i32, ptr %18, align 4
  %179 = load ptr, ptr %15, align 8
  %180 = getelementptr inbounds %struct._zval_struct, ptr %179, i32 0, i32 1
  store i32 %178, ptr %180, align 8
  %181 = load i8, ptr %11, align 1
  %182 = trunc i8 %181 to i1
  br i1 %182, label %221, label %183

183:                                              ; preds = %150
  %184 = load ptr, ptr %9, align 8
  %185 = getelementptr inbounds %struct._zend_refcounted_h, ptr %184, i32 0, i32 1
  %186 = load i32, ptr %185, align 4
  store i32 %186, ptr %7, align 4
  %187 = load i32, ptr %7, align 4
  %188 = and i32 %187, 1008
  %189 = and i32 %188, 64
  %190 = icmp ne i32 %189, 0
  br i1 %190, label %221, label %191

191:                                              ; preds = %183
  %192 = load ptr, ptr %8, align 8
  %193 = getelementptr inbounds %struct._zend_array, ptr %192, i32 0, i32 1
  %194 = load i32, ptr %193, align 8
  %195 = and i32 %194, -17
  store i32 %195, ptr %193, align 8
  %196 = load ptr, ptr %9, align 8
  store ptr %196, ptr %6, align 8
  %197 = load ptr, ptr %6, align 8
  %198 = getelementptr inbounds %struct._zend_refcounted_h, ptr %197, i32 0, i32 1
  %199 = load i32, ptr %198, align 4
  store i32 %199, ptr %4, align 4
  %200 = load i32, ptr %4, align 4
  %201 = and i32 %200, 1008
  %202 = and i32 %201, 64
  %203 = icmp ne i32 %202, 0
  br i1 %203, label %209, label %204

204:                                              ; preds = %191
  %205 = load ptr, ptr %6, align 8
  store ptr %205, ptr %3, align 8
  %206 = load ptr, ptr %3, align 8
  %207 = load i32, ptr %206, align 4
  %208 = add i32 %207, 1
  store i32 %208, ptr %206, align 4
  store i32 %208, ptr %5, align 4
  br label %210

209:                                              ; preds = %191
  store i32 1, ptr %5, align 4
  br label %210

210:                                              ; preds = %209, %204
  %211 = load ptr, ptr %9, align 8
  store ptr %211, ptr %2, align 8
  %212 = load ptr, ptr %2, align 8
  %213 = getelementptr inbounds %struct._zend_string, ptr %212, i32 0, i32 1
  %214 = load i64, ptr %213, align 8
  %215 = icmp ne i64 %214, 0
  br i1 %215, label %216, label %217

216:                                              ; preds = %210
  br label %220

217:                                              ; preds = %210
  %218 = load ptr, ptr %2, align 8
  %219 = call i64 @zend_string_hash_func(ptr noundef %218) #10
  br label %220

220:                                              ; preds = %217, %216
  br label %221

221:                                              ; preds = %220, %183, %150
  %222 = load ptr, ptr %9, align 8
  %223 = load ptr, ptr %14, align 8
  %224 = getelementptr inbounds %struct._Bucket, ptr %223, i32 0, i32 2
  store ptr %222, ptr %224, align 8
  %225 = load ptr, ptr %9, align 8
  %226 = getelementptr inbounds %struct._zend_string, ptr %225, i32 0, i32 1
  %227 = load i64, ptr %226, align 8
  %228 = load ptr, ptr %14, align 8
  %229 = getelementptr inbounds %struct._Bucket, ptr %228, i32 0, i32 1
  store i64 %227, ptr %229, align 8
  %230 = load ptr, ptr %14, align 8
  %231 = getelementptr inbounds %struct._Bucket, ptr %230, i32 0, i32 1
  %232 = load i64, ptr %231, align 8
  %233 = trunc i64 %232 to i32
  %234 = load ptr, ptr %8, align 8
  %235 = getelementptr inbounds %struct._zend_array, ptr %234, i32 0, i32 2
  %236 = load i32, ptr %235, align 4
  %237 = or i32 %233, %236
  store i32 %237, ptr %13, align 4
  %238 = load ptr, ptr %8, align 8
  %239 = getelementptr inbounds %struct._zend_array, ptr %238, i32 0, i32 3
  %240 = load ptr, ptr %239, align 8
  %241 = load i32, ptr %13, align 4
  %242 = sext i32 %241 to i64
  %243 = getelementptr inbounds i32, ptr %240, i64 %242
  %244 = load i32, ptr %243, align 4
  %245 = load ptr, ptr %14, align 8
  %246 = getelementptr inbounds %struct._zval_struct, ptr %245, i32 0, i32 2
  store i32 %244, ptr %246, align 4
  %247 = load i32, ptr %12, align 4
  %248 = load ptr, ptr %8, align 8
  %249 = getelementptr inbounds %struct._zend_array, ptr %248, i32 0, i32 3
  %250 = load ptr, ptr %249, align 8
  %251 = load i32, ptr %13, align 4
  %252 = sext i32 %251 to i64
  %253 = getelementptr inbounds i32, ptr %250, i64 %252
  store i32 %247, ptr %253, align 4
  %254 = load ptr, ptr %8, align 8
  %255 = getelementptr inbounds %struct._zend_array, ptr %254, i32 0, i32 5
  %256 = load i32, ptr %255, align 4
  %257 = add i32 %256, 1
  store i32 %257, ptr %255, align 4
  br label %258

258:                                              ; preds = %221, %108, %89
  %259 = load i32, ptr %33, align 4
  %260 = add nsw i32 %259, 1
  store i32 %260, ptr %33, align 4
  br label %73

261:                                              ; preds = %73
  br label %262

262:                                              ; preds = %261, %65
  %263 = load ptr, ptr %31, align 8
  ret ptr %263
}