; Function Attrs: nounwind uwtable
define ptr @zend_std_build_object_properties_array(ptr nocapture noundef readonly %0) local_unnamed_addr #0 {
  %2 = getelementptr inbounds i8, ptr %0, i64 16
  %3 = load ptr, ptr %2, align 8
  %4 = getelementptr inbounds i8, ptr %0, i64 32
  %5 = load ptr, ptr %4, align 8
  %.not = icmp eq ptr %5, null
  tail call void @llvm.assume(i1 %.not)
  %6 = getelementptr inbounds i8, ptr %3, i64 32
  %7 = load i32, ptr %6, align 8
  %8 = tail call ptr @_zend_new_array(i32 noundef %7) #15
  %9 = load i32, ptr %6, align 8
  %.not75 = icmp eq i32 %9, 0
  br i1 %.not75, label %.loopexit, label %10

10:                                               ; preds = %1
  tail call void @zend_hash_real_init_mixed(ptr noundef %8) #15
  %11 = load i32, ptr %6, align 8
  %12 = icmp sgt i32 %11, 0
  br i1 %12, label %.lr.ph, label %.loopexit

.lr.ph:                                           ; preds = %10
  %13 = getelementptr inbounds i8, ptr %3, i64 248
  %14 = getelementptr inbounds i8, ptr %8, i64 24
  %15 = getelementptr inbounds i8, ptr %8, i64 16
  %16 = getelementptr inbounds i8, ptr %8, i64 8
  %17 = getelementptr inbounds i8, ptr %8, i64 12
  %18 = getelementptr inbounds i8, ptr %8, i64 28
  br label %19

19:                                               ; preds = %.lr.ph, %87
  %20 = phi i32 [ %11, %.lr.ph ], [ %88, %87 ]
  %indvars.iv = phi i64 [ 0, %.lr.ph ], [ %indvars.iv.next, %87 ]
  %21 = load ptr, ptr %13, align 8
  %22 = getelementptr inbounds ptr, ptr %21, i64 %indvars.iv
  %23 = load ptr, ptr %22, align 8
  %.not76 = icmp eq ptr %23, null
  br i1 %.not76, label %87, label %24

24:                                               ; preds = %19
  %25 = load i32, ptr %23, align 8
  %26 = zext i32 %25 to i64
  %27 = getelementptr inbounds i8, ptr %0, i64 %26
  %28 = getelementptr inbounds i8, ptr %27, i64 8
  %29 = load i8, ptr %28, align 8
  switch i8 %29, label %35 [
    i8 0, label %87
    i8 10, label %30
  ]

30:                                               ; preds = %24
  %31 = load ptr, ptr %27, align 8
  %32 = load i32, ptr %31, align 4
  %33 = icmp eq i32 %32, 1
  %34 = getelementptr inbounds i8, ptr %31, i64 8
  %spec.select = select i1 %33, ptr %34, ptr %27
  br label %35

35:                                               ; preds = %30, %24
  %.071 = phi ptr [ %27, %24 ], [ %spec.select, %30 ]
  %36 = getelementptr inbounds i8, ptr %.071, i64 8
  %37 = getelementptr inbounds i8, ptr %.071, i64 9
  %38 = load i8, ptr %37, align 1
  %.not77 = icmp eq i8 %38, 0
  br i1 %.not77, label %43, label %39

39:                                               ; preds = %35
  %40 = load ptr, ptr %.071, align 8
  %41 = load i32, ptr %40, align 4
  %42 = add i32 %41, 1
  store i32 %42, ptr %40, align 4
  br label %43

43:                                               ; preds = %35, %39
  %44 = getelementptr inbounds i8, ptr %23, i64 8
  %45 = load ptr, ptr %44, align 8
  %46 = load i32, ptr %14, align 8
  %47 = add i32 %46, 1
  store i32 %47, ptr %14, align 8
  %48 = load ptr, ptr %15, align 8
  %49 = zext i32 %46 to i64
  %50 = getelementptr inbounds %struct._Bucket, ptr %48, i64 %49
  %51 = load ptr, ptr %.071, align 8
  %52 = load i32, ptr %36, align 8
  store ptr %51, ptr %50, align 8
  %53 = getelementptr inbounds i8, ptr %50, i64 8
  store i32 %52, ptr %53, align 8
  %54 = getelementptr inbounds i8, ptr %45, i64 4
  %55 = load i32, ptr %54, align 4
  %56 = and i32 %55, 64
  %.not78 = icmp eq i32 %56, 0
  br i1 %.not78, label %57, label %70

57:                                               ; preds = %43
  %58 = load i32, ptr %16, align 8
  %59 = and i32 %58, -17
  store i32 %59, ptr %16, align 8
  %60 = load i32, ptr %54, align 4
  %61 = and i32 %60, 64
  %.not79 = icmp eq i32 %61, 0
  br i1 %.not79, label %62, label %65

62:                                               ; preds = %57
  %63 = load i32, ptr %45, align 4
  %64 = add i32 %63, 1
  store i32 %64, ptr %45, align 4
  br label %65

65:                                               ; preds = %57, %62
  %66 = getelementptr inbounds i8, ptr %45, i64 8
  %67 = load i64, ptr %66, align 8
  %.not80 = icmp eq i64 %67, 0
  br i1 %.not80, label %68, label %70

68:                                               ; preds = %65
  %69 = tail call i64 @zend_string_hash_func(ptr noundef nonnull %45) #15
  br label %70

70:                                               ; preds = %68, %65, %43
  %71 = getelementptr inbounds i8, ptr %50, i64 24
  store ptr %45, ptr %71, align 8
  %72 = getelementptr inbounds i8, ptr %45, i64 8
  %73 = load i64, ptr %72, align 8
  %74 = getelementptr inbounds i8, ptr %50, i64 16
  store i64 %73, ptr %74, align 8
  %75 = trunc i64 %73 to i32
  %76 = load i32, ptr %17, align 4
  %77 = or i32 %76, %75
  %78 = load ptr, ptr %15, align 8
  %79 = sext i32 %77 to i64
  %80 = getelementptr inbounds i32, ptr %78, i64 %79
  %81 = load i32, ptr %80, align 4
  %82 = getelementptr inbounds i8, ptr %50, i64 12
  store i32 %81, ptr %82, align 4
  %83 = load ptr, ptr %15, align 8
  %84 = getelementptr inbounds i32, ptr %83, i64 %79
  store i32 %46, ptr %84, align 4
  %85 = load i32, ptr %18, align 4
  %86 = add i32 %85, 1
  store i32 %86, ptr %18, align 4
  %.pre = load i32, ptr %6, align 8
  br label %87

87:                                               ; preds = %24, %19, %70
  %88 = phi i32 [ %20, %24 ], [ %20, %19 ], [ %.pre, %70 ]
  %indvars.iv.next = add nuw nsw i64 %indvars.iv, 1
  %89 = sext i32 %88 to i64
  %90 = icmp slt i64 %indvars.iv.next, %89
  br i1 %90, label %19, label %.loopexit

.loopexit:                                        ; preds = %87, %10, %1
  ret ptr %8
}